target datalayout = "e-m:e-p270:32:32-p271:32:32-p272:64:64-i64:64-i128:128-f80:128-n8:16:32:64-S128"
target triple = "x86_64-pc-linux-gnu"

%"struct.Luau::FValue" = type { i8, i8, ptr, ptr }
%"class.Luau::AstNode.base" = type <{ ptr, i32, %"struct.Luau::Location" }>
%"struct.Luau::Location" = type { %"struct.Luau::Position", %"struct.Luau::Position" }
%"struct.Luau::Position" = type { i32, i32 }
%"class.Luau::AstExpr.base" = type { %"class.Luau::AstNode.base" }
%"class.Luau::AstExprTable" = type { %"class.Luau::AstExpr.base", %"struct.Luau::AstArray.656" }
%"struct.Luau::AstArray.656" = type { ptr, i64 }
%"struct.Luau::AstExprTable::Item" = type { i32, ptr, ptr }

@_ZN5FFlag23LuauTableKeysAreRValuesE = dso_local global %"struct.Luau::FValue" zeroinitializer, align 8

; Function Attrs: alwaysinline mustprogress nounwind uwtable
define linkonce_odr dso_local noundef zeroext i1 @_ZNK4Luau6FValueIbEcvbEv(ptr noundef nonnull align 8 dereferenceable(24) %0) #9 comdat align 2 {
  %2 = alloca ptr, align 8
  store ptr %0, ptr %2, align 8, !tbaa !59
  %3 = load ptr, ptr %2, align 8
  %4 = getelementptr inbounds nuw %"struct.Luau::FValue", ptr %3, i32 0, i32 0
  %5 = load i8, ptr %4, align 8, !tbaa !67, !range !65, !noundef !66
  %6 = trunc i8 %5 to i1
  ret i1 %6
}

; Function Attrs: mustprogress nounwind uwtable
define linkonce_odr dso_local noundef ptr @_ZNK4Luau8AstArrayINS_12AstExprTable4ItemEE3endEv(ptr noundef nonnull align 8 dereferenceable(16) %0) #2 comdat align 2 {
  %2 = alloca ptr, align 8
  store ptr %0, ptr %2, align 8, !tbaa !1075
  %3 = load ptr, ptr %2, align 8
  %4 = getelementptr inbounds nuw %"struct.Luau::AstArray.656", ptr %3, i32 0, i32 0
  %5 = load ptr, ptr %4, align 8, !tbaa !1209
  %6 = getelementptr inbounds nuw %"struct.Luau::AstArray.656", ptr %3, i32 0, i32 1
  %7 = load i64, ptr %6, align 8, !tbaa !1211
  %8 = getelementptr inbounds nuw %"struct.Luau::AstExprTable::Item", ptr %5, i64 %7
  ret ptr %8
}

; Function Attrs: mustprogress nounwind uwtable
define linkonce_odr dso_local noundef ptr @_ZNK4Luau8AstArrayINS_12AstExprTable4ItemEE5beginEv(ptr noundef nonnull align 8 dereferenceable(16) %0) #2 comdat align 2 {
  %2 = alloca ptr, align 8
  store ptr %0, ptr %2, align 8, !tbaa !1075
  %3 = load ptr, ptr %2, align 8
  %4 = getelementptr inbounds nuw %"struct.Luau::AstArray.656", ptr %3, i32 0, i32 0
  %5 = load ptr, ptr %4, align 8, !tbaa !1209
  ret ptr %5
}

; Function Attrs: mustprogress uwtable
define dso_local void @_ZN4Luau12TypeChecker25visitEPNS_12AstExprTableE(ptr noundef nonnull align 8 dereferenceable(784) %0, ptr noundef %1) #7 align 2 {
  %3 = alloca ptr, align 8
  %4 = alloca ptr, align 8
  %5 = alloca ptr, align 8
  %6 = alloca ptr, align 8
  %7 = alloca ptr, align 8
  %8 = alloca ptr, align 8
  store ptr %0, ptr %3, align 8, !tbaa !131
  store ptr %1, ptr %4, align 8, !tbaa !786
  %9 = load ptr, ptr %3, align 8
  call void @llvm.lifetime.start.p0(i64 8, ptr %5) #4
  %10 = load ptr, ptr %4, align 8, !tbaa !786
  %11 = getelementptr inbounds nuw %"class.Luau::AstExprTable", ptr %10, i32 0, i32 1
  store ptr %11, ptr %5, align 8, !tbaa !1075
  call void @llvm.lifetime.start.p0(i64 8, ptr %6) #4
  %12 = load ptr, ptr %5, align 8, !tbaa !1075
  %13 = call noundef ptr @_ZNK4Luau8AstArrayINS_12AstExprTable4ItemEE5beginEv(ptr noundef nonnull align 8 dereferenceable(16) %12)
  store ptr %13, ptr %6, align 8, !tbaa !1077
  call void @llvm.lifetime.start.p0(i64 8, ptr %7) #4
  %14 = load ptr, ptr %5, align 8, !tbaa !1075
  %15 = call noundef ptr @_ZNK4Luau8AstArrayINS_12AstExprTable4ItemEE3endEv(ptr noundef nonnull align 8 dereferenceable(16) %14)
  store ptr %15, ptr %7, align 8, !tbaa !1077
  br label %16

16:                                               ; preds = %48, %2
  %17 = load ptr, ptr %6, align 8, !tbaa !1077
  %18 = load ptr, ptr %7, align 8, !tbaa !1077
  %19 = icmp ne ptr %17, %18
  br i1 %19, label %21, label %20

20:                                               ; preds = %16
  call void @llvm.lifetime.end.p0(i64 8, ptr %7) #4
  call void @llvm.lifetime.end.p0(i64 8, ptr %6) #4
  call void @llvm.lifetime.end.p0(i64 8, ptr %5) #4
  br label %51

21:                                               ; preds = %16
  call void @llvm.lifetime.start.p0(i64 8, ptr %8) #4
  %22 = load ptr, ptr %6, align 8, !tbaa !1077
  store ptr %22, ptr %8, align 8, !tbaa !1077
  %23 = call noundef zeroext i1 @_ZNK4Luau6FValueIbEcvbEv(ptr noundef nonnull align 8 dereferenceable(24) @_ZN5FFlag23LuauTableKeysAreRValuesE)
  br i1 %23, label %24, label %34

24:                                               ; preds = %21
  %25 = load ptr, ptr %8, align 8, !tbaa !1077
  %26 = getelementptr inbounds nuw %"struct.Luau::AstExprTable::Item", ptr %25, i32 0, i32 1
  %27 = load ptr, ptr %26, align 8, !tbaa !1079
  %28 = icmp ne ptr %27, null
  br i1 %28, label %29, label %33

29:                                               ; preds = %24
  %30 = load ptr, ptr %8, align 8, !tbaa !1077
  %31 = getelementptr inbounds nuw %"struct.Luau::AstExprTable::Item", ptr %30, i32 0, i32 1
  %32 = load ptr, ptr %31, align 8, !tbaa !1079
  call void @_ZN4Luau12TypeChecker25visitEPNS_7AstExprENS_12ValueContextE(ptr noundef nonnull align 8 dereferenceable(784) %9, ptr noundef %32, i32 noundef 1)
  br label %33

33:                                               ; preds = %29, %24
  br label %44

34:                                               ; preds = %21
  %35 = load ptr, ptr %8, align 8, !tbaa !1077
  %36 = getelementptr inbounds nuw %"struct.Luau::AstExprTable::Item", ptr %35, i32 0, i32 1
  %37 = load ptr, ptr %36, align 8, !tbaa !1079
  %38 = icmp ne ptr %37, null
  br i1 %38, label %39, label %43

39:                                               ; preds = %34
  %40 = load ptr, ptr %8, align 8, !tbaa !1077
  %41 = getelementptr inbounds nuw %"struct.Luau::AstExprTable::Item", ptr %40, i32 0, i32 1
  %42 = load ptr, ptr %41, align 8, !tbaa !1079
  call void @_ZN4Luau12TypeChecker25visitEPNS_7AstExprENS_12ValueContextE(ptr noundef nonnull align 8 dereferenceable(784) %9, ptr noundef %42, i32 noundef 0)
  br label %43

43:                                               ; preds = %39, %34
  br label %44

44:                                               ; preds = %43, %33
  %45 = load ptr, ptr %8, align 8, !tbaa !1077
  %46 = getelementptr inbounds nuw %"struct.Luau::AstExprTable::Item", ptr %45, i32 0, i32 2
  %47 = load ptr, ptr %46, align 8, !tbaa !1082
  call void @_ZN4Luau12TypeChecker25visitEPNS_7AstExprENS_12ValueContextE(ptr noundef nonnull align 8 dereferenceable(784) %9, ptr noundef %47, i32 noundef 1)
  call void @llvm.lifetime.end.p0(i64 8, ptr %8) #4
  br label %48

48:                                               ; preds = %44
  %49 = load ptr, ptr %6, align 8, !tbaa !1077
  %50 = getelementptr inbounds nuw %"struct.Luau::AstExprTable::Item", ptr %49, i32 1
  store ptr %50, ptr %6, align 8, !tbaa !1077
  br label %16

51:                                               ; preds = %20
  ret void
}