; Function Attrs: mustprogress uwtable
define dso_local void @_ZN4Luau12TypeChecker25visitEPNS_12AstExprTableE(ptr noundef nonnull align 8 dereferenceable(784) %0, ptr noundef readonly captures(none) %1) local_unnamed_addr #5 align 2 {
  %3 = getelementptr inbounds nuw i8, ptr %1, i64 32
  %4 = load ptr, ptr %3, align 8, !tbaa !831
  %5 = getelementptr inbounds nuw i8, ptr %1, i64 40
  %6 = load i64, ptr %5, align 8, !tbaa !834
  %7 = getelementptr inbounds nuw %"struct.Luau::AstExprTable::Item", ptr %4, i64 %6
  %.not17 = icmp eq i64 %6, 0
  br i1 %.not17, label %._crit_edge, label %.lr.ph

._crit_edge:                                      ; preds = %11, %2
  ret void

.lr.ph:                                           ; preds = %2, %11
  %.018 = phi ptr [ %14, %11 ], [ %4, %2 ]
  %8 = getelementptr inbounds nuw i8, ptr %.018, i64 8
  %9 = load ptr, ptr %8, align 8, !tbaa !835
  %.not16 = icmp eq ptr %9, null
  br i1 %.not16, label %11, label %.sink.split

.sink.split:                                      ; preds = %.lr.ph
  %10 = load i8, ptr @_ZN5FFlag23LuauTableKeysAreRValuesE, align 8, !tbaa !316, !range !83, !noundef !84
  %. = zext nneg i8 %10 to i32
  tail call void @_ZN4Luau12TypeChecker25visitEPNS_7AstExprENS_12ValueContextE(ptr noundef nonnull align 8 dereferenceable(784) %0, ptr noundef nonnull %9, i32 noundef %.)
  br label %11

11:                                               ; preds = %.lr.ph, %.sink.split
  %12 = getelementptr inbounds nuw i8, ptr %.018, i64 16
  %13 = load ptr, ptr %12, align 8, !tbaa !838
  tail call void @_ZN4Luau12TypeChecker25visitEPNS_7AstExprENS_12ValueContextE(ptr noundef nonnull align 8 dereferenceable(784) %0, ptr noundef %13, i32 noundef 1)
  %14 = getelementptr inbounds nuw i8, ptr %.018, i64 24
  %.not = icmp eq ptr %14, %7
  br i1 %.not, label %._crit_edge, label %.lr.ph
}